ccopy_reg
_reconstructor
p0
(c__main__
AutoVivification
p1
c__builtin__
dict
p2
(dp3
S'matches'
p4
g0
(g1
g2
(dp5
I1
(i__main__
Match
p6
(dp7
S'bo_sets'
p8
I2
sS'match_id'
p9
I1
sS'bo_legs'
p10
I3
sS'won_by'
p11
S'Dave'
p12
sS'is_finished'
p13
I01
sS'lost_by'
p14
(lp15
S'Niels'
p16
asbsI2
(i__main__
Match
p17
(dp18
g8
I2
sg9
I2
sg10
I2
sg11
S'Niels'
p19
sg13
I01
sg14
(lp20
S'Dave'
p21
asbstp22
Rp23
sS'legs'
p24
g0
(g1
g2
(dp25
S'2.3.8'
p26
(i__main__
Leg
p27
(dp28
S'leg_id'
p29
g26
sS'finish'
p30
I141
sg11
g21
sg13
I01
sg14
(lp31
g19
asbsI1
(i__main__
Leg
p32
(dp33
g29
S'1.1.1'
p34
sg30
I141
sg11
g16
sg13
I01
sg14
(lp35
g12
asbsI2
(i__main__
Leg
p36
(dp37
g29
S'1.1.2'
p38
sg30
I141
sg11
g12
sg13
I01
sg14
(lp39
g16
asbsI3
(i__main__
Leg
p40
(dp41
g29
S'1.1.3'
p42
sg30
I180
sg11
g12
sg13
I01
sg14
(lp43
g16
asbsI4
(i__main__
Leg
p44
(dp45
g29
S'1.1.4'
p46
sg30
I141
sg11
g16
sg13
I01
sg14
(lp47
g12
asbsI5
(i__main__
Leg
p48
(dp49
g29
S'1.1.5'
p50
sg30
I141
sg11
g12
sg13
I01
sg14
(lp51
g16
asbsI6
(i__main__
Leg
p52
(dp53
g29
S'1.1.6'
p54
sg30
I141
sg11
g16
sg13
I01
sg14
(lp55
g12
asbsI7
(i__main__
Leg
p56
(dp57
g29
S'1.2.7'
p58
sg30
I141
sg11
g12
sg13
I01
sg14
(lp59
g16
asbsI8
(i__main__
Leg
p60
(dp61
g29
S'1.2.8'
p62
sg30
I141
sg11
g16
sg13
I01
sg14
(lp63
g12
asbsI9
(i__main__
Leg
p64
(dp65
g29
S'1.2.9'
p66
sg30
I141
sg11
g12
sg13
I01
sg14
(lp67
g16
asbsI10
(i__main__
Leg
p68
(dp69
g29
S'1.2.10'
p70
sg30
I141
sg11
g16
sg13
I01
sg14
(lp71
g12
asbsI11
(i__main__
Leg
p72
(dp73
g29
S'1.2.11'
p74
sg30
I141
sg11
g12
sg13
I01
sg14
(lp75
g16
asbsI12
(i__main__
Leg
p76
(dp77
g29
S'1.3.12'
p78
sg30
I141
sg11
g12
sg13
I01
sg14
(lp79
g16
asbsI13
(i__main__
Leg
p80
(dp81
g29
S'1.3.13'
p82
sg30
I141
sg11
g16
sg13
I01
sg14
(lp83
g12
asbsI14
(i__main__
Leg
p84
(dp85
g29
S'1.3.14'
p86
sg30
I141
sg11
g12
sg13
I01
sg14
(lp87
g16
asbsS'2.2.5'
p88
(i__main__
Leg
p89
(dp90
g29
g88
sg30
I141
sg11
g19
sg13
I01
sg14
(lp91
g21
asbsS'2.2.7'
p92
(i__main__
Leg
p93
(dp94
g29
S'2.2.7'
p95
sg30
I141
sg11
g19
sg13
I01
sg14
(lp96
g21
asbsS'2.2.6'
p97
(i__main__
Leg
p98
(dp99
g29
g97
sg30
I141
sg11
g21
sg13
I01
sg14
(lp100
g19
asbsS'2.1.2'
p101
(i__main__
Leg
p102
(dp103
g29
g101
sg30
I141
sg11
g21
sg13
I01
sg14
(lp104
g19
asbsS'2.1.3'
p105
(i__main__
Leg
p106
(dp107
g29
g105
sg30
I141
sg11
g19
sg13
I01
sg14
(lp108
g21
asbsS'2.1.1'
p109
(i__main__
Leg
p110
(dp111
g29
g109
sg30
I141
sg11
g19
sg13
I01
sg14
(lp112
g21
asbsS'2.1.4'
p113
(i__main__
Leg
p114
(dp115
g29
S'2.1.4'
p116
sg30
I141
sg11
g21
sg13
I01
sg14
(lp117
g19
asbsS'2.3.9'
p118
(i__main__
Leg
p119
(dp120
g29
g118
sg30
I141
sg11
g19
sg13
I01
sg14
(lp121
g21
asbstp122
Rp123
sS'match_counter'
p124
I2
sS'sets'
p125
g0
(g1
g2
(dp126
I1
(i__main__
Set
p127
(dp128
g13
I01
sg10
I3
sg11
g12
sS'set_id'
p129
S'1.1'
p130
sg14
(lp131
g16
asbsI2
(i__main__
Set
p132
(dp133
g13
I01
sg10
I3
sg11
g16
sg129
S'1.2'
p134
sg14
(lp135
g12
asbsI3
(i__main__
Set
p136
(dp137
g13
I01
sg10
I3
sg11
g12
sg129
S'1.3'
p138
sg14
(lp139
g16
asbsS'2.3'
p140
(i__main__
Set
p141
(dp142
g13
I01
sg10
I2
sg11
g19
sg129
g140
sg14
(lp143
g21
asbsS'2.2'
p144
(i__main__
Set
p145
(dp146
g13
I01
sg10
I2
sg11
g21
sg129
g144
sg14
(lp147
g19
asbsS'2.1'
p148
(i__main__
Set
p149
(dp150
g13
I01
sg10
I2
sg11
g19
sg129
g148
sg14
(lp151
g21
asbstp152
Rp153
stp154
Rp155
.